BL51 BANKED LINKER/LOCATER V6.22                                                        08/27/2023  11:54:51  PAGE 1


BL51 BANKED LINKER/LOCATER V6.22, INVOKED BY:
D:\PHAN_MEM\KEIL\KEIL\C51\BIN\BL51.EXE test.obj TO test


MEMORY MODEL: SMALL


INPUT MODULES INCLUDED:
  test.obj (TEST)
  D:\PHAN_MEM\KEIL\KEIL\C51\LIB\C51S.LIB (?C_STARTUP)
  D:\PHAN_MEM\KEIL\KEIL\C51\LIB\C51S.LIB (?C?CLDOPTR)


LINK MAP OF MODULE:  test (TEST)


            TYPE    BASE      LENGTH    RELOCATION   SEGMENT NAME
            -----------------------------------------------------

            * * * * * * *   D A T A   M E M O R Y   * * * * * * *
            REG     0000H     0008H     ABSOLUTE     "REG BANK 0"
            DATA    0008H     0003H     UNIT         _DATA_GROUP_
            DATA    000BH     0001H     UNIT         ?DT?TEST
            IDATA   000CH     0001H     UNIT         ?STACK

            * * * * * * *   C O D E   M E M O R Y   * * * * * * *
            CODE    0000H     0003H     ABSOLUTE     
            CODE    0003H     0020H     UNIT         ?PR?SERIAL_INT?TEST
            CODE    0023H     0003H     ABSOLUTE     
            CODE    0026H     002DH     UNIT         ?C?LIB_CODE
            CODE    0053H     0026H     UNIT         ?PR?_DELAY_MS?TEST
            CODE    0079H     0024H     UNIT         ?PR?_TRANSMIT_STR?TEST
            CODE    009DH     0015H     UNIT         ?PR?MAIN?TEST
            CODE    00B2H     0013H     UNIT         ?PR?SETUPUART?TEST
            CODE    00C5H     000CH     UNIT         ?C_C51STARTUP
            CODE    00D1H     0008H     UNIT         ?PR?_TRANSMIT_CHAR?TEST
            CODE    00D9H     0005H     UNIT         ?CO?TEST



OVERLAY MAP OF MODULE:   test (TEST)


SEGMENT                           DATA_GROUP 
  +--> CALLED SEGMENT           START    LENGTH
-----------------------------------------------
?C_C51STARTUP                   -----    -----
  +--> ?PR?MAIN?TEST

?PR?MAIN?TEST                   -----    -----
  +--> ?PR?SETUPUART?TEST
  +--> ?CO?TEST
  +--> ?PR?_TRANSMIT_STR?TEST
  +--> ?PR?_DELAY_MS?TEST

?PR?_TRANSMIT_STR?TEST          0008H    0003H
  +--> ?PR?_TRANSMIT_CHAR?TEST

BL51 BANKED LINKER/LOCATER V6.22                                                      08/27/2023  11:54:51  PAGE 2




SYMBOL TABLE OF MODULE:  test (TEST)

  VALUE           TYPE          NAME
  ----------------------------------

  -------         MODULE        TEST
  C:0000H         SYMBOL        _ICE_DUMMY_
  B:00A8H.7       PUBLIC        EA
  B:00A8H.4       PUBLIC        ES
  B:00A0H.7       PUBLIC        P2_7
  B:0098H.0       PUBLIC        RI
  B:0098H.1       PUBLIC        TI
  C:009DH         PUBLIC        main
  C:0003H         PUBLIC        serial_int
  D:0099H         PUBLIC        SBUF
  C:0079H         PUBLIC        _transmit_str
  D:0098H         PUBLIC        SCON
  D:0089H         PUBLIC        TMOD
  D:008DH         PUBLIC        TH1
  D:008BH         PUBLIC        TL1
  C:0053H         PUBLIC        _delay_ms
  B:0088H.6       PUBLIC        TR1
  D:000BH         PUBLIC        rxData
  C:00B2H         PUBLIC        setupUART
  C:00D1H         PUBLIC        _transmit_char
  -------         PROC          _DELAY_MS
  D:0006H         SYMBOL        ms
  -------         DO            
  D:0004H         SYMBOL        i
  D:0002H         SYMBOL        j
  -------         ENDDO         
  C:0053H         LINE#         11
  C:0053H         LINE#         12
  C:0053H         LINE#         14
  C:0063H         LINE#         15
  C:0078H         LINE#         16
  -------         ENDPROC       _DELAY_MS
  -------         PROC          SETUPUART
  C:00B2H         LINE#         20
  C:00B2H         LINE#         21
  C:00B2H         LINE#         22
  C:00B4H         LINE#         23
  C:00B6H         LINE#         24
  C:00B9H         LINE#         25
  C:00BCH         LINE#         26
  C:00C2H         LINE#         27
  C:00C4H         LINE#         28
  -------         ENDPROC       SETUPUART
  -------         PROC          SERIAL_INT
  C:0003H         LINE#         32
  C:0007H         LINE#         34
  C:000AH         LINE#         35
  C:000AH         LINE#         36
  C:000CH         LINE#         38
  C:000FH         LINE#         40
BL51 BANKED LINKER/LOCATER V6.22                                                      08/27/2023  11:54:51  PAGE 3


  C:0018H         LINE#         41
  C:0018H         LINE#         42
  C:001AH         LINE#         43
  C:001CH         LINE#         44
  C:001CH         LINE#         45
  C:001EH         LINE#         46
  C:001EH         LINE#         47
  C:001EH         LINE#         48
  C:001EH         LINE#         49
  -------         ENDPROC       SERIAL_INT
  -------         PROC          _TRANSMIT_CHAR
  D:0007H         SYMBOL        Data
  C:00D1H         LINE#         53
  C:00D1H         LINE#         54
  C:00D1H         LINE#         55
  C:00D3H         LINE#         56
  C:00D6H         LINE#         57
  C:00D8H         LINE#         58
  -------         ENDPROC       _TRANSMIT_CHAR
  -------         PROC          _TRANSMIT_STR
  D:0008H         SYMBOL        Data
  -------         DO            
  D:0004H         SYMBOL        i
  -------         ENDDO         
  C:0079H         LINE#         62
  C:007FH         LINE#         63
  C:007FH         LINE#         64
  C:0082H         LINE#         65
  C:0092H         LINE#         66
  C:009CH         LINE#         67
  -------         ENDPROC       _TRANSMIT_STR
  -------         PROC          MAIN
  C:009DH         LINE#         71
  C:009DH         LINE#         72
  C:009DH         LINE#         73
  C:00A0H         LINE#         75
  C:00A0H         LINE#         76
  C:00A0H         LINE#         77
  C:00A9H         LINE#         78
  C:00B0H         LINE#         79
  -------         ENDPROC       MAIN
  -------         ENDMOD        TEST

  -------         MODULE        ?C?CLDOPTR
  C:0026H         PUBLIC        ?C?CLDOPTR
  -------         ENDMOD        ?C?CLDOPTR

Program Size: data=13.0 xdata=0 code=222
LINK/LOCATE RUN COMPLETE.  0 WARNING(S),  0 ERROR(S)
